target datalayout = "e-m:e-p270:32:32-p271:32:32-p272:64:64-i64:64-i128:128-f80:128-n8:16:32:64-S128"
target triple = "x86_64-pc-linux-gnu"

%struct.PJconsts = type <{ ptr, ptr, ptr, ptr, ptr, ptr, ptr, ptr, ptr, ptr, ptr, ptr, i32, [4 x i8], ptr, ptr, ptr, ptr, ptr, ptr, ptr, ptr, double, double, double, double, double, double, double, double, double, double, double, double, double, double, double, double, double, double, double, double, double, double, i32, i32, i32, i32, i32, i32, i32, i32, i32, i32, i32, [4 x i8], ptr, ptr, ptr, ptr, ptr, ptr, double, double, double, double, double, double, double, double, double, double, double, i32, [4 x i8], [7 x double], i32, [4 x i8], ptr, ptr, double, double, i32, [4 x i8], %"class.std::shared_ptr", i8, [7 x i8], double, i8, [7 x i8], %"class.std::__cxx11::basic_string", %"class.std::__cxx11::basic_string", %"class.std::__cxx11::basic_string", i8, [7 x i8], %"class.std::vector", i32, [4 x i8], %"class.std::vector.3", i32, i8, i8, i8, i8 }>
%"class.std::shared_ptr" = type { %"class.std::__shared_ptr" }
%"class.std::__shared_ptr" = type { ptr, %"class.std::__shared_count" }
%"class.std::__shared_count" = type { ptr }
%"class.std::__cxx11::basic_string" = type { %"struct.std::__cxx11::basic_string<char>::_Alloc_hider", i64, %union.anon }
%"struct.std::__cxx11::basic_string<char>::_Alloc_hider" = type { ptr }
%union.anon = type { i64, [8 x i8] }
%"class.std::vector" = type { %"struct.std::_Vector_base" }
%"struct.std::_Vector_base" = type { %"struct.std::_Vector_base<osgeo::proj::operation::GridDescription, std::allocator<osgeo::proj::operation::GridDescription>>::_Vector_impl" }
%"struct.std::_Vector_base<osgeo::proj::operation::GridDescription, std::allocator<osgeo::proj::operation::GridDescription>>::_Vector_impl" = type { %"struct.std::_Vector_base<osgeo::proj::operation::GridDescription, std::allocator<osgeo::proj::operation::GridDescription>>::_Vector_impl_data" }
%"struct.std::_Vector_base<osgeo::proj::operation::GridDescription, std::allocator<osgeo::proj::operation::GridDescription>>::_Vector_impl_data" = type { ptr, ptr, ptr }
%"class.std::vector.3" = type { %"struct.std::_Vector_base.4" }
%"struct.std::_Vector_base.4" = type { %"struct.std::_Vector_base<PJCoordOperation, std::allocator<PJCoordOperation>>::_Vector_impl" }
%"struct.std::_Vector_base<PJCoordOperation, std::allocator<PJCoordOperation>>::_Vector_impl" = type { %"struct.std::_Vector_base<PJCoordOperation, std::allocator<PJCoordOperation>>::_Vector_impl_data" }
%"struct.std::_Vector_base<PJCoordOperation, std::allocator<PJCoordOperation>>::_Vector_impl_data" = type { ptr, ptr, ptr }
%"struct.(anonymous namespace)::pj_tpeqd" = type { double, double, double, double, double, double, double, double, double, double, double, double, double, double, double, double, double }
%struct.PJ_LP = type { double, double }
%struct.PJ_XY = type { double, double }

; Function Attrs: mustprogress uwtable
define internal { double, double } @_ZL15tpeqd_s_inverse5PJ_XYP8PJconsts(double %0, double %1, ptr noundef %2) #0 {
  %4 = alloca %struct.PJ_LP, align 8
  %5 = alloca %struct.PJ_XY, align 8
  %6 = alloca ptr, align 8
  %7 = alloca ptr, align 8
  %8 = alloca double, align 8
  %9 = alloca double, align 8
  %10 = alloca double, align 8
  %11 = alloca double, align 8
  %12 = alloca double, align 8
  %13 = alloca double, align 8
  %14 = getelementptr inbounds { double, double }, ptr %5, i32 0, i32 0
  store double %0, ptr %14, align 8
  %15 = getelementptr inbounds { double, double }, ptr %5, i32 0, i32 1
  store double %1, ptr %15, align 8
  store ptr %2, ptr %6, align 8
  call void @llvm.memset.p0.i64(ptr align 8 %4, i8 0, i64 16, i1 false)
  %16 = load ptr, ptr %6, align 8
  %17 = getelementptr inbounds %struct.PJconsts, ptr %16, i32 0, i32 11
  %18 = load ptr, ptr %17, align 8
  store ptr %18, ptr %7, align 8
  %19 = getelementptr inbounds %struct.PJ_XY, ptr %5, i32 0, i32 1
  %20 = load double, ptr %19, align 8
  %21 = getelementptr inbounds %struct.PJ_XY, ptr %5, i32 0, i32 0
  %22 = load double, ptr %21, align 8
  %23 = load ptr, ptr %7, align 8
  %24 = getelementptr inbounds %"struct.(anonymous namespace)::pj_tpeqd", ptr %23, i32 0, i32 10
  %25 = load double, ptr %24, align 8
  %26 = fadd double %22, %25
  %27 = call double @hypot(double noundef %20, double noundef %26) #8
  %28 = call double @cos(double noundef %27) #8
  store double %28, ptr %8, align 8
  %29 = getelementptr inbounds %struct.PJ_XY, ptr %5, i32 0, i32 1
  %30 = load double, ptr %29, align 8
  %31 = getelementptr inbounds %struct.PJ_XY, ptr %5, i32 0, i32 0
  %32 = load double, ptr %31, align 8
  %33 = load ptr, ptr %7, align 8
  %34 = getelementptr inbounds %"struct.(anonymous namespace)::pj_tpeqd", ptr %33, i32 0, i32 10
  %35 = load double, ptr %34, align 8
  %36 = fsub double %32, %35
  %37 = call double @hypot(double noundef %30, double noundef %36) #8
  %38 = call double @cos(double noundef %37) #8
  store double %38, ptr %9, align 8
  %39 = load double, ptr %8, align 8
  %40 = load double, ptr %9, align 8
  %41 = fadd double %39, %40
  store double %41, ptr %10, align 8
  %42 = load double, ptr %8, align 8
  %43 = load double, ptr %9, align 8
  %44 = fsub double %42, %43
  store double %44, ptr %11, align 8
  %45 = load double, ptr %11, align 8
  %46 = load double, ptr %10, align 8
  %47 = load ptr, ptr %7, align 8
  %48 = getelementptr inbounds %"struct.(anonymous namespace)::pj_tpeqd", ptr %47, i32 0, i32 11
  %49 = load double, ptr %48, align 8
  %50 = fmul double %46, %49
  %51 = call double @atan2(double noundef %45, double noundef %50) #8
  %52 = fneg double %51
  %53 = getelementptr inbounds %struct.PJ_LP, ptr %4, i32 0, i32 0
  store double %52, ptr %53, align 8
  %54 = load ptr, ptr %6, align 8
  %55 = getelementptr inbounds %struct.PJconsts, ptr %54, i32 0, i32 0
  %56 = load ptr, ptr %55, align 8
  %57 = load ptr, ptr %7, align 8
  %58 = getelementptr inbounds %"struct.(anonymous namespace)::pj_tpeqd", ptr %57, i32 0, i32 11
  %59 = load double, ptr %58, align 8
  %60 = load double, ptr %10, align 8
  %61 = fmul double %59, %60
  %62 = load double, ptr %11, align 8
  %63 = call double @hypot(double noundef %61, double noundef %62) #8
  %64 = load ptr, ptr %7, align 8
  %65 = getelementptr inbounds %"struct.(anonymous namespace)::pj_tpeqd", ptr %64, i32 0, i32 12
  %66 = load double, ptr %65, align 8
  %67 = fmul double %63, %66
  %68 = call noundef double @_Z5aacosP6pj_ctxd(ptr noundef %56, double noundef %67)
  %69 = getelementptr inbounds %struct.PJ_LP, ptr %4, i32 0, i32 1
  store double %68, ptr %69, align 8
  %70 = getelementptr inbounds %struct.PJ_XY, ptr %5, i32 0, i32 1
  %71 = load double, ptr %70, align 8
  %72 = fcmp olt double %71, 0.000000e+00
  br i1 %72, label %73, label %78

73:                                               ; preds = %3
  %74 = getelementptr inbounds %struct.PJ_LP, ptr %4, i32 0, i32 1
  %75 = load double, ptr %74, align 8
  %76 = fneg double %75
  %77 = getelementptr inbounds %struct.PJ_LP, ptr %4, i32 0, i32 1
  store double %76, ptr %77, align 8
  br label %78

78:                                               ; preds = %73, %3
  %79 = getelementptr inbounds %struct.PJ_LP, ptr %4, i32 0, i32 1
  %80 = load double, ptr %79, align 8
  %81 = call double @sin(double noundef %80) #8
  store double %81, ptr %13, align 8
  %82 = getelementptr inbounds %struct.PJ_LP, ptr %4, i32 0, i32 1
  %83 = load double, ptr %82, align 8
  %84 = call double @cos(double noundef %83) #8
  store double %84, ptr %12, align 8
  %85 = load ptr, ptr %7, align 8
  %86 = getelementptr inbounds %"struct.(anonymous namespace)::pj_tpeqd", ptr %85, i32 0, i32 15
  %87 = load double, ptr %86, align 8
  %88 = getelementptr inbounds %struct.PJ_LP, ptr %4, i32 0, i32 0
  %89 = load double, ptr %88, align 8
  %90 = fsub double %89, %87
  store double %90, ptr %88, align 8
  %91 = getelementptr inbounds %struct.PJ_LP, ptr %4, i32 0, i32 0
  %92 = load double, ptr %91, align 8
  %93 = call double @cos(double noundef %92) #8
  store double %93, ptr %10, align 8
  %94 = load ptr, ptr %6, align 8
  %95 = getelementptr inbounds %struct.PJconsts, ptr %94, i32 0, i32 0
  %96 = load ptr, ptr %95, align 8
  %97 = load ptr, ptr %7, align 8
  %98 = getelementptr inbounds %"struct.(anonymous namespace)::pj_tpeqd", ptr %97, i32 0, i32 14
  %99 = load double, ptr %98, align 8
  %100 = load double, ptr %13, align 8
  %101 = load ptr, ptr %7, align 8
  %102 = getelementptr inbounds %"struct.(anonymous namespace)::pj_tpeqd", ptr %101, i32 0, i32 13
  %103 = load double, ptr %102, align 8
  %104 = load double, ptr %12, align 8
  %105 = fmul double %103, %104
  %106 = load double, ptr %10, align 8
  %107 = fmul double %105, %106
  %108 = call double @llvm.fmuladd.f64(double %99, double %100, double %107)
  %109 = call noundef double @_Z5aasinP6pj_ctxd(ptr noundef %96, double noundef %108)
  %110 = getelementptr inbounds %struct.PJ_LP, ptr %4, i32 0, i32 1
  store double %109, ptr %110, align 8
  %111 = load double, ptr %12, align 8
  %112 = getelementptr inbounds %struct.PJ_LP, ptr %4, i32 0, i32 0
  %113 = load double, ptr %112, align 8
  %114 = call double @sin(double noundef %113) #8
  %115 = fmul double %111, %114
  %116 = load ptr, ptr %7, align 8
  %117 = getelementptr inbounds %"struct.(anonymous namespace)::pj_tpeqd", ptr %116, i32 0, i32 14
  %118 = load double, ptr %117, align 8
  %119 = load double, ptr %12, align 8
  %120 = fmul double %118, %119
  %121 = load double, ptr %10, align 8
  %122 = load ptr, ptr %7, align 8
  %123 = getelementptr inbounds %"struct.(anonymous namespace)::pj_tpeqd", ptr %122, i32 0, i32 13
  %124 = load double, ptr %123, align 8
  %125 = load double, ptr %13, align 8
  %126 = fmul double %124, %125
  %127 = fneg double %126
  %128 = call double @llvm.fmuladd.f64(double %120, double %121, double %127)
  %129 = call double @atan2(double noundef %115, double noundef %128) #8
  %130 = load ptr, ptr %7, align 8
  %131 = getelementptr inbounds %"struct.(anonymous namespace)::pj_tpeqd", ptr %130, i32 0, i32 16
  %132 = load double, ptr %131, align 8
  %133 = fadd double %129, %132
  %134 = getelementptr inbounds %struct.PJ_LP, ptr %4, i32 0, i32 0
  store double %133, ptr %134, align 8
  %135 = load { double, double }, ptr %4, align 8
  ret { double, double } %135
}