; Function Attrs: mustprogress uwtable
define internal { double, double } @_ZL15tpeqd_s_inverse5PJ_XYP8PJconsts(double %0, double %1, ptr nocapture noundef readonly %2) #0 {
  %4 = getelementptr inbounds i8, ptr %2, i64 88
  %5 = load ptr, ptr %4, align 8
  %6 = getelementptr inbounds i8, ptr %5, i64 80
  %7 = load double, ptr %6, align 8
  %8 = fadd double %7, %0
  %9 = tail call double @hypot(double noundef %1, double noundef %8) #8
  %10 = tail call double @cos(double noundef %9) #8
  %11 = load double, ptr %6, align 8
  %12 = fsub double %0, %11
  %13 = tail call double @hypot(double noundef %1, double noundef %12) #8
  %14 = tail call double @cos(double noundef %13) #8
  %15 = fadd double %10, %14
  %16 = fsub double %10, %14
  %17 = getelementptr inbounds i8, ptr %5, i64 88
  %18 = load double, ptr %17, align 8
  %19 = fmul double %15, %18
  %20 = tail call double @atan2(double noundef %16, double noundef %19) #8
  %21 = load ptr, ptr %2, align 8
  %22 = load double, ptr %17, align 8
  %23 = fmul double %15, %22
  %24 = tail call double @hypot(double noundef %23, double noundef %16) #8
  %25 = getelementptr inbounds i8, ptr %5, i64 96
  %26 = load double, ptr %25, align 8
  %27 = fmul double %24, %26
  %28 = tail call noundef double @_Z5aacosP6pj_ctxd(ptr noundef %21, double noundef %27)
  %29 = fcmp olt double %1, 0.000000e+00
  %30 = fneg double %28
  %.sroa.8.0 = select i1 %29, double %30, double %28
  %31 = fneg double %20
  %32 = tail call double @sin(double noundef %.sroa.8.0) #8
  %33 = tail call double @cos(double noundef %.sroa.8.0) #8
  %34 = getelementptr inbounds i8, ptr %5, i64 120
  %35 = load double, ptr %34, align 8
  %36 = fsub double %31, %35
  %37 = tail call double @cos(double noundef %36) #8
  %38 = load ptr, ptr %2, align 8
  %39 = getelementptr inbounds i8, ptr %5, i64 112
  %40 = load double, ptr %39, align 8
  %41 = getelementptr inbounds i8, ptr %5, i64 104
  %42 = load double, ptr %41, align 8
  %43 = fmul double %33, %42
  %44 = fmul double %37, %43
  %45 = tail call double @llvm.fmuladd.f64(double %40, double %32, double %44)
  %46 = tail call noundef double @_Z5aasinP6pj_ctxd(ptr noundef %38, double noundef %45)
  %47 = tail call double @sin(double noundef %36) #8
  %48 = fmul double %33, %47
  %49 = load double, ptr %39, align 8
  %50 = fmul double %33, %49
  %51 = load double, ptr %41, align 8
  %52 = fneg double %51
  %53 = fmul double %32, %52
  %54 = tail call double @llvm.fmuladd.f64(double %50, double %37, double %53)
  %55 = tail call double @atan2(double noundef %48, double noundef %54) #8
  %56 = getelementptr inbounds i8, ptr %5, i64 128
  %57 = load double, ptr %56, align 8
  %58 = fadd double %55, %57
  %.fca.0.insert = insertvalue { double, double } poison, double %58, 0
  %.fca.1.insert = insertvalue { double, double } %.fca.0.insert, double %46, 1
  ret { double, double } %.fca.1.insert
}